target datalayout = "e-m:e-p270:32:32-p271:32:32-p272:64:64-i64:64-i128:128-f80:128-n8:16:32:64-S128"
target triple = "x86_64-pc-linux-gnu"

; Function Attrs: inlinehint nounwind uwtable
define internal ptr @unicode_to_utf8(i32 noundef %0, ptr noundef %1) #0 {
  %3 = alloca i32, align 4
  %4 = alloca ptr, align 8
  store i32 %0, ptr %3, align 4
  store ptr %1, ptr %4, align 8
  %5 = load i32, ptr %3, align 4
  %6 = icmp ule i32 %5, 127
  br i1 %6, label %7, label %12

7:                                                ; preds = %2
  %8 = load i32, ptr %3, align 4
  %9 = trunc i32 %8 to i8
  %10 = load ptr, ptr %4, align 8
  %11 = getelementptr inbounds i8, ptr %10, i64 0
  store i8 %9, ptr %11, align 1
  br label %83

12:                                               ; preds = %2
  %13 = load i32, ptr %3, align 4
  %14 = icmp ule i32 %13, 2047
  br i1 %14, label %15, label %29

15:                                               ; preds = %12
  %16 = load i32, ptr %3, align 4
  %17 = lshr i32 %16, 6
  %18 = and i32 %17, 31
  %19 = or i32 192, %18
  %20 = trunc i32 %19 to i8
  %21 = load ptr, ptr %4, align 8
  %22 = getelementptr inbounds i8, ptr %21, i64 0
  store i8 %20, ptr %22, align 1
  %23 = load i32, ptr %3, align 4
  %24 = and i32 %23, 63
  %25 = or i32 128, %24
  %26 = trunc i32 %25 to i8
  %27 = load ptr, ptr %4, align 8
  %28 = getelementptr inbounds i8, ptr %27, i64 1
  store i8 %26, ptr %28, align 1
  br label %82

29:                                               ; preds = %12
  %30 = load i32, ptr %3, align 4
  %31 = icmp ule i32 %30, 65535
  br i1 %31, label %32, label %53

32:                                               ; preds = %29
  %33 = load i32, ptr %3, align 4
  %34 = lshr i32 %33, 12
  %35 = and i32 %34, 15
  %36 = or i32 224, %35
  %37 = trunc i32 %36 to i8
  %38 = load ptr, ptr %4, align 8
  %39 = getelementptr inbounds i8, ptr %38, i64 0
  store i8 %37, ptr %39, align 1
  %40 = load i32, ptr %3, align 4
  %41 = lshr i32 %40, 6
  %42 = and i32 %41, 63
  %43 = or i32 128, %42
  %44 = trunc i32 %43 to i8
  %45 = load ptr, ptr %4, align 8
  %46 = getelementptr inbounds i8, ptr %45, i64 1
  store i8 %44, ptr %46, align 1
  %47 = load i32, ptr %3, align 4
  %48 = and i32 %47, 63
  %49 = or i32 128, %48
  %50 = trunc i32 %49 to i8
  %51 = load ptr, ptr %4, align 8
  %52 = getelementptr inbounds i8, ptr %51, i64 2
  store i8 %50, ptr %52, align 1
  br label %81

53:                                               ; preds = %29
  %54 = load i32, ptr %3, align 4
  %55 = lshr i32 %54, 18
  %56 = and i32 %55, 7
  %57 = or i32 240, %56
  %58 = trunc i32 %57 to i8
  %59 = load ptr, ptr %4, align 8
  %60 = getelementptr inbounds i8, ptr %59, i64 0
  store i8 %58, ptr %60, align 1
  %61 = load i32, ptr %3, align 4
  %62 = lshr i32 %61, 12
  %63 = and i32 %62, 63
  %64 = or i32 128, %63
  %65 = trunc i32 %64 to i8
  %66 = load ptr, ptr %4, align 8
  %67 = getelementptr inbounds i8, ptr %66, i64 1
  store i8 %65, ptr %67, align 1
  %68 = load i32, ptr %3, align 4
  %69 = lshr i32 %68, 6
  %70 = and i32 %69, 63
  %71 = or i32 128, %70
  %72 = trunc i32 %71 to i8
  %73 = load ptr, ptr %4, align 8
  %74 = getelementptr inbounds i8, ptr %73, i64 2
  store i8 %72, ptr %74, align 1
  %75 = load i32, ptr %3, align 4
  %76 = and i32 %75, 63
  %77 = or i32 128, %76
  %78 = trunc i32 %77 to i8
  %79 = load ptr, ptr %4, align 8
  %80 = getelementptr inbounds i8, ptr %79, i64 3
  store i8 %78, ptr %80, align 1
  br label %81

81:                                               ; preds = %53, %32
  br label %82

82:                                               ; preds = %81, %15
  br label %83

83:                                               ; preds = %82, %7
  %84 = load ptr, ptr %4, align 8
  ret ptr %84
}