; Function Attrs: inlinehint mustprogress nofree norecurse nosync nounwind willreturn memory(argmem: write) uwtable
define internal fastcc noundef nonnull ptr @unicode_to_utf8(i32 noundef range(i32 1, 0) %0, ptr noundef nonnull returned writeonly captures(ret: address, provenance) initializes((0, 1)) %1) unnamed_addr #0 {
  %3 = icmp ult i32 %0, 128
  br i1 %3, label %4, label %6

4:                                                ; preds = %2
  %5 = trunc nuw nsw i32 %0 to i8
  store i8 %5, ptr %1, align 1
  br label %50

6:                                                ; preds = %2
  %7 = icmp ult i32 %0, 2048
  br i1 %7, label %8, label %16

8:                                                ; preds = %6
  %9 = lshr i32 %0, 6
  %10 = trunc nuw i32 %9 to i8
  %11 = or disjoint i8 %10, -64
  store i8 %11, ptr %1, align 1
  %12 = trunc i32 %0 to i8
  %13 = and i8 %12, 63
  %14 = or disjoint i8 %13, -128
  %15 = getelementptr inbounds nuw i8, ptr %1, i64 1
  store i8 %14, ptr %15, align 1
  br label %50

16:                                               ; preds = %6
  %17 = icmp ult i32 %0, 65536
  br i1 %17, label %18, label %31

18:                                               ; preds = %16
  %19 = lshr i32 %0, 12
  %20 = trunc nuw i32 %19 to i8
  %21 = or disjoint i8 %20, -32
  store i8 %21, ptr %1, align 1
  %22 = lshr i32 %0, 6
  %23 = trunc i32 %22 to i8
  %24 = and i8 %23, 63
  %25 = or disjoint i8 %24, -128
  %26 = getelementptr inbounds nuw i8, ptr %1, i64 1
  store i8 %25, ptr %26, align 1
  %27 = trunc i32 %0 to i8
  %28 = and i8 %27, 63
  %29 = or disjoint i8 %28, -128
  %30 = getelementptr inbounds nuw i8, ptr %1, i64 2
  store i8 %29, ptr %30, align 1
  br label %50

31:                                               ; preds = %16
  %32 = lshr i32 %0, 18
  %33 = trunc i32 %32 to i8
  %34 = and i8 %33, 7
  %35 = or disjoint i8 %34, -16
  store i8 %35, ptr %1, align 1
  %36 = lshr i32 %0, 12
  %37 = trunc i32 %36 to i8
  %38 = and i8 %37, 63
  %39 = or disjoint i8 %38, -128
  %40 = getelementptr inbounds nuw i8, ptr %1, i64 1
  store i8 %39, ptr %40, align 1
  %41 = lshr i32 %0, 6
  %42 = trunc i32 %41 to i8
  %43 = and i8 %42, 63
  %44 = or disjoint i8 %43, -128
  %45 = getelementptr inbounds nuw i8, ptr %1, i64 2
  store i8 %44, ptr %45, align 1
  %46 = trunc i32 %0 to i8
  %47 = and i8 %46, 63
  %48 = or disjoint i8 %47, -128
  %49 = getelementptr inbounds nuw i8, ptr %1, i64 3
  store i8 %48, ptr %49, align 1
  br label %50

50:                                               ; preds = %8, %31, %18, %4
  ret ptr %1
}